target datalayout = "e-m:e-p270:32:32-p271:32:32-p272:64:64-i64:64-i128:128-f80:128-n8:16:32:64-S128"
target triple = "x86_64-pc-linux-gnu"

%struct.PJconsts = type { ptr, ptr, ptr, ptr, ptr, ptr, ptr, ptr, ptr, ptr, ptr, ptr, i32, ptr, ptr, ptr, ptr, ptr, ptr, ptr, ptr, double, double, double, double, double, double, double, double, double, double, double, double, double, double, double, double, double, double, double, double, double, double, i32, i32, i32, i32, i32, i32, i32, i32, i32, i32, i32, ptr, ptr, ptr, ptr, ptr, ptr, double, double, double, double, double, double, double, double, double, double, double, i32, [7 x double], i32, ptr, ptr, double, double, i32, [4 x i8], %"class.std::shared_ptr", i8, double, i8, %"class.std::__cxx11::basic_string", %"class.std::__cxx11::basic_string", %"class.std::__cxx11::basic_string", i8, %"class.std::vector", i32, %"class.std::vector.3", i32, i8, i8, i8, ptr }
%"class.std::shared_ptr" = type { %"class.std::__shared_ptr" }
%"class.std::__shared_ptr" = type { ptr, %"class.std::__shared_count" }
%"class.std::__shared_count" = type { ptr }
%"class.std::__cxx11::basic_string" = type { %"struct.std::__cxx11::basic_string<char>::_Alloc_hider", i64, %union.anon }
%"struct.std::__cxx11::basic_string<char>::_Alloc_hider" = type { ptr }
%union.anon = type { i64, [8 x i8] }
%"class.std::vector" = type { %"struct.std::_Vector_base" }
%"struct.std::_Vector_base" = type { %"struct.std::_Vector_base<osgeo::proj::operation::GridDescription, std::allocator<osgeo::proj::operation::GridDescription>>::_Vector_impl" }
%"struct.std::_Vector_base<osgeo::proj::operation::GridDescription, std::allocator<osgeo::proj::operation::GridDescription>>::_Vector_impl" = type { %"struct.std::_Vector_base<osgeo::proj::operation::GridDescription, std::allocator<osgeo::proj::operation::GridDescription>>::_Vector_impl_data" }
%"struct.std::_Vector_base<osgeo::proj::operation::GridDescription, std::allocator<osgeo::proj::operation::GridDescription>>::_Vector_impl_data" = type { ptr, ptr, ptr }
%"class.std::vector.3" = type { %"struct.std::_Vector_base.4" }
%"struct.std::_Vector_base.4" = type { %"struct.std::_Vector_base<PJCoordOperation, std::allocator<PJCoordOperation>>::_Vector_impl" }
%"struct.std::_Vector_base<PJCoordOperation, std::allocator<PJCoordOperation>>::_Vector_impl" = type { %"struct.std::_Vector_base<PJCoordOperation, std::allocator<PJCoordOperation>>::_Vector_impl_data" }
%"struct.std::_Vector_base<PJCoordOperation, std::allocator<PJCoordOperation>>::_Vector_impl_data" = type { ptr, ptr, ptr }
%"struct.(anonymous namespace)::pj_bacon" = type { i32, i32 }
%struct.PJ_XY = type { double, double }
%struct.PJ_LP = type { double, double }

; Function Attrs: mustprogress nounwind uwtable
define internal { double, double } @_ZL15bacon_s_forward5PJ_LPP8PJconsts(double %0, double %1, ptr noundef %2) #4 {
  %4 = alloca %struct.PJ_XY, align 8
  %5 = alloca %struct.PJ_LP, align 8
  %6 = alloca ptr, align 8
  %7 = alloca ptr, align 8
  %8 = alloca double, align 8
  %9 = alloca double, align 8
  %10 = getelementptr inbounds nuw { double, double }, ptr %5, i32 0, i32 0
  store double %0, ptr %10, align 8
  %11 = getelementptr inbounds nuw { double, double }, ptr %5, i32 0, i32 1
  store double %1, ptr %11, align 8
  store ptr %2, ptr %6, align 8, !tbaa !3
  call void @llvm.memset.p0.i64(ptr align 8 %4, i8 0, i64 16, i1 false)
  call void @llvm.lifetime.start.p0(i64 8, ptr %7) #8
  %12 = load ptr, ptr %6, align 8, !tbaa !3
  %13 = getelementptr inbounds nuw %struct.PJconsts, ptr %12, i32 0, i32 11
  %14 = load ptr, ptr %13, align 8, !tbaa !43
  store ptr %14, ptr %7, align 8, !tbaa !41
  call void @llvm.lifetime.start.p0(i64 8, ptr %8) #8
  call void @llvm.lifetime.start.p0(i64 8, ptr %9) #8
  %15 = load ptr, ptr %7, align 8, !tbaa !41
  %16 = getelementptr inbounds nuw %"struct.(anonymous namespace)::pj_bacon", ptr %15, i32 0, i32 0
  %17 = load i32, ptr %16, align 4, !tbaa !44
  %18 = icmp ne i32 %17, 0
  br i1 %18, label %19, label %24

19:                                               ; preds = %3
  %20 = getelementptr inbounds nuw %struct.PJ_LP, ptr %5, i32 0, i32 1
  %21 = load double, ptr %20, align 8, !tbaa !49
  %22 = call double @sin(double noundef %21) #8, !tbaa !51
  %23 = fmul double 0x3FF921FB54442D18, %22
  br label %27

24:                                               ; preds = %3
  %25 = getelementptr inbounds nuw %struct.PJ_LP, ptr %5, i32 0, i32 1
  %26 = load double, ptr %25, align 8, !tbaa !49
  br label %27

27:                                               ; preds = %24, %19
  %28 = phi double [ %23, %19 ], [ %26, %24 ]
  %29 = getelementptr inbounds nuw %struct.PJ_XY, ptr %4, i32 0, i32 1
  store double %28, ptr %29, align 8, !tbaa !52
  %30 = getelementptr inbounds nuw %struct.PJ_LP, ptr %5, i32 0, i32 0
  %31 = load double, ptr %30, align 8, !tbaa !54
  %32 = call double @llvm.fabs.f64(double %31)
  store double %32, ptr %8, align 8, !tbaa !55
  %33 = load double, ptr %8, align 8, !tbaa !55
  %34 = fcmp oge double %33, 1.000000e-10
  br i1 %34, label %35, label %87

35:                                               ; preds = %27
  %36 = load ptr, ptr %7, align 8, !tbaa !41
  %37 = getelementptr inbounds nuw %"struct.(anonymous namespace)::pj_bacon", ptr %36, i32 0, i32 1
  %38 = load i32, ptr %37, align 4, !tbaa !46
  %39 = icmp ne i32 %38, 0
  br i1 %39, label %40, label %56

40:                                               ; preds = %35
  %41 = load double, ptr %8, align 8, !tbaa !55
  %42 = fcmp oge double %41, 0x3FF921FB54442D18
  br i1 %42, label %43, label %56

43:                                               ; preds = %40
  %44 = getelementptr inbounds nuw %struct.PJ_LP, ptr %5, i32 0, i32 1
  %45 = load double, ptr %44, align 8, !tbaa !49
  %46 = getelementptr inbounds nuw %struct.PJ_LP, ptr %5, i32 0, i32 1
  %47 = load double, ptr %46, align 8, !tbaa !49
  %48 = fneg double %45
  %49 = call double @llvm.fmuladd.f64(double %48, double %47, double 0x4003BD3CC9BE45DE)
  %50 = fadd double %49, 1.000000e-10
  %51 = call double @sqrt(double noundef %50) #8, !tbaa !51
  %52 = load double, ptr %8, align 8, !tbaa !55
  %53 = fadd double %51, %52
  %54 = fsub double %53, 0x3FF921FB54442D18
  %55 = getelementptr inbounds nuw %struct.PJ_XY, ptr %4, i32 0, i32 0
  store double %54, ptr %55, align 8, !tbaa !56
  br label %77

56:                                               ; preds = %40, %35
  %57 = load double, ptr %8, align 8, !tbaa !55
  %58 = fdiv double 0x4003BD3CC9BE45DE, %57
  %59 = load double, ptr %8, align 8, !tbaa !55
  %60 = fadd double %58, %59
  %61 = fmul double 5.000000e-01, %60
  store double %61, ptr %9, align 8, !tbaa !55
  %62 = load double, ptr %8, align 8, !tbaa !55
  %63 = load double, ptr %9, align 8, !tbaa !55
  %64 = fsub double %62, %63
  %65 = load double, ptr %9, align 8, !tbaa !55
  %66 = load double, ptr %9, align 8, !tbaa !55
  %67 = getelementptr inbounds nuw %struct.PJ_XY, ptr %4, i32 0, i32 1
  %68 = load double, ptr %67, align 8, !tbaa !52
  %69 = getelementptr inbounds nuw %struct.PJ_XY, ptr %4, i32 0, i32 1
  %70 = load double, ptr %69, align 8, !tbaa !52
  %71 = fmul double %68, %70
  %72 = fneg double %71
  %73 = call double @llvm.fmuladd.f64(double %65, double %66, double %72)
  %74 = call double @sqrt(double noundef %73) #8, !tbaa !51
  %75 = fadd double %64, %74
  %76 = getelementptr inbounds nuw %struct.PJ_XY, ptr %4, i32 0, i32 0
  store double %75, ptr %76, align 8, !tbaa !56
  br label %77

77:                                               ; preds = %56, %43
  %78 = getelementptr inbounds nuw %struct.PJ_LP, ptr %5, i32 0, i32 0
  %79 = load double, ptr %78, align 8, !tbaa !54
  %80 = fcmp olt double %79, 0.000000e+00
  br i1 %80, label %81, label %86

81:                                               ; preds = %77
  %82 = getelementptr inbounds nuw %struct.PJ_XY, ptr %4, i32 0, i32 0
  %83 = load double, ptr %82, align 8, !tbaa !56
  %84 = fneg double %83
  %85 = getelementptr inbounds nuw %struct.PJ_XY, ptr %4, i32 0, i32 0
  store double %84, ptr %85, align 8, !tbaa !56
  br label %86

86:                                               ; preds = %81, %77
  br label %89

87:                                               ; preds = %27
  %88 = getelementptr inbounds nuw %struct.PJ_XY, ptr %4, i32 0, i32 0
  store double 0.000000e+00, ptr %88, align 8, !tbaa !56
  br label %89

89:                                               ; preds = %87, %86
  call void @llvm.lifetime.end.p0(i64 8, ptr %9) #8
  call void @llvm.lifetime.end.p0(i64 8, ptr %8) #8
  call void @llvm.lifetime.end.p0(i64 8, ptr %7) #8
  %90 = load { double, double }, ptr %4, align 8
  ret { double, double } %90
}