; Function Attrs: mustprogress nofree nounwind willreturn memory(readwrite, inaccessiblemem: write) uwtable
define internal { double, double } @_ZL15bacon_s_forward5PJ_LPP8PJconsts(double %0, double %1, ptr noundef readonly captures(none) %2) #3 {
  %4 = getelementptr inbounds nuw i8, ptr %2, i64 88
  %5 = load ptr, ptr %4, align 8, !tbaa !3
  %6 = load i32, ptr %5, align 4, !tbaa !36
  %.not = icmp eq i32 %6, 0
  br i1 %.not, label %10, label %7

7:                                                ; preds = %3
  %8 = tail call double @sin(double noundef %1) #7, !tbaa !45
  %9 = fmul double %8, 0x3FF921FB54442D18
  br label %10

10:                                               ; preds = %3, %7
  %11 = phi double [ %9, %7 ], [ %1, %3 ]
  %12 = tail call double @llvm.fabs.f64(double %0)
  %13 = fcmp ult double %12, 1.000000e-10
  br i1 %13, label %40, label %14

14:                                               ; preds = %10
  %15 = getelementptr inbounds nuw i8, ptr %5, i64 4
  %16 = load i32, ptr %15, align 4, !tbaa !46
  %17 = icmp ne i32 %16, 0
  %18 = fcmp oge double %12, 0x3FF921FB54442D18
  %or.cond = and i1 %18, %17
  br i1 %or.cond, label %19, label %26

19:                                               ; preds = %14
  %20 = fneg double %1
  %21 = tail call double @llvm.fmuladd.f64(double %20, double %1, double 0x4003BD3CC9BE45DE)
  %22 = fadd double %21, 1.000000e-10
  %23 = tail call double @sqrt(double noundef %22) #7, !tbaa !45
  %24 = fadd double %12, %23
  %25 = fadd double %24, 0xBFF921FB54442D18
  br label %36

26:                                               ; preds = %14
  %27 = fdiv double 0x4003BD3CC9BE45DE, %12
  %28 = fadd double %12, %27
  %29 = fmul double %28, 5.000000e-01
  %30 = fsub double %12, %29
  %31 = fneg double %11
  %32 = fmul double %11, %31
  %33 = tail call double @llvm.fmuladd.f64(double %29, double %29, double %32)
  %34 = tail call double @sqrt(double noundef %33) #7, !tbaa !45
  %35 = fadd double %30, %34
  br label %36

36:                                               ; preds = %26, %19
  %.sroa.017.0 = phi double [ %25, %19 ], [ %35, %26 ]
  %37 = fcmp olt double %0, 0.000000e+00
  br i1 %37, label %38, label %40

38:                                               ; preds = %36
  %39 = fneg double %.sroa.017.0
  br label %40

40:                                               ; preds = %10, %36, %38
  %.sroa.017.1 = phi double [ %39, %38 ], [ %.sroa.017.0, %36 ], [ 0.000000e+00, %10 ]
  %.fca.0.insert = insertvalue { double, double } poison, double %.sroa.017.1, 0
  %.fca.1.insert = insertvalue { double, double } %.fca.0.insert, double %11, 1
  ret { double, double } %.fca.1.insert
}